target datalayout = "e-m:e-p270:32:32-p271:32:32-p272:64:64-i64:64-i128:128-f80:128-n8:16:32:64-S128"
target triple = "x86_64-pc-linux-gnu"

; Function Attrs: nounwind null_pointer_is_valid sspstrong uwtable
define i32 @crc32_mpeg2_seed(ptr noundef %0, i32 noundef %1, i32 noundef %2) #0 {
  %4 = alloca ptr, align 8
  %5 = alloca i32, align 4
  %6 = alloca i32, align 4
  %7 = alloca i32, align 4
  %8 = alloca i32, align 4
  store ptr %0, ptr %4, align 8
  store i32 %1, ptr %5, align 4
  store i32 %2, ptr %6, align 4
  call void @llvm.lifetime.start.p0(i64 4, ptr %7) #4
  call void @llvm.lifetime.start.p0(i64 4, ptr %8) #4
  %9 = load i32, ptr %6, align 4
  store i32 %9, ptr %8, align 4
  store i32 0, ptr %7, align 4
  br label %10

10:                                               ; preds = %31, %3
  %11 = load i32, ptr %7, align 4
  %12 = load i32, ptr %5, align 4
  %13 = icmp ult i32 %11, %12
  br i1 %13, label %14, label %34

14:                                               ; preds = %10
  %15 = load i32, ptr %8, align 4
  %16 = shl i32 %15, 8
  %17 = load i32, ptr %8, align 4
  %18 = lshr i32 %17, 24
  %19 = load ptr, ptr %4, align 8
  %20 = load i32, ptr %7, align 4
  %21 = zext i32 %20 to i64
  %22 = getelementptr i8, ptr %19, i64 %21
  %23 = load i8, ptr %22, align 1
  %24 = zext i8 %23 to i32
  %25 = xor i32 %18, %24
  %26 = and i32 %25, 255
  %27 = zext i32 %26 to i64
  %28 = getelementptr [256 x i32], ptr @crc32_mpeg2_table, i64 0, i64 %27
  %29 = load i32, ptr %28, align 4
  %30 = xor i32 %16, %29
  store i32 %30, ptr %8, align 4
  br label %31

31:                                               ; preds = %14
  %32 = load i32, ptr %7, align 4
  %33 = add i32 %32, 1
  store i32 %33, ptr %7, align 4
  br label %10, !llvm.loop !9

34:                                               ; preds = %10
  %35 = load i32, ptr %8, align 4
  call void @llvm.lifetime.end.p0(i64 4, ptr %8) #4
  call void @llvm.lifetime.end.p0(i64 4, ptr %7) #4
  ret i32 %35
}