; Function Attrs: nofree norecurse nosync nounwind null_pointer_is_valid sspstrong memory(argmem: read) uwtable
define i32 @crc32_mpeg2_seed(ptr noundef readonly captures(none) %0, i32 noundef %1, i32 noundef %2) local_unnamed_addr #1 {
  %.not = icmp eq i32 %1, 0
  br i1 %.not, label %._crit_edge, label %.lr.ph.preheader

.lr.ph.preheader:                                 ; preds = %3
  %wide.trip.count = zext i32 %1 to i64
  br label %.lr.ph

.lr.ph:                                           ; preds = %.lr.ph.preheader, %.lr.ph
  %indvars.iv = phi i64 [ 0, %.lr.ph.preheader ], [ %indvars.iv.next, %.lr.ph ]
  %.010 = phi i32 [ %2, %.lr.ph.preheader ], [ %13, %.lr.ph ]
  %4 = shl i32 %.010, 8
  %5 = lshr i32 %.010, 24
  %6 = getelementptr i8, ptr %0, i64 %indvars.iv
  %7 = load i8, ptr %6, align 1
  %8 = zext i8 %7 to i32
  %9 = xor i32 %5, %8
  %10 = zext nneg i32 %9 to i64
  %11 = getelementptr [256 x i32], ptr @crc32_mpeg2_table, i64 0, i64 %10
  %12 = load i32, ptr %11, align 4
  %13 = xor i32 %12, %4
  %indvars.iv.next = add nuw nsw i64 %indvars.iv, 1
  %exitcond.not = icmp eq i64 %indvars.iv.next, %wide.trip.count
  br i1 %exitcond.not, label %._crit_edge, label %.lr.ph, !llvm.loop !9

._crit_edge:                                      ; preds = %.lr.ph, %3
  %.0.lcssa = phi i32 [ %2, %3 ], [ %13, %.lr.ph ]
  ret i32 %.0.lcssa
}